; Function Attrs: mustprogress uwtable
define void @_ZN6casadi10PolynomialC2Edddd(ptr noundef nonnull align 8 dereferenceable(24) %0, double noundef %1, double noundef %2, double noundef %3, double noundef %4) unnamed_addr #3 align 2 personality ptr @__gxx_personality_v0 {
  tail call void @llvm.memset.p0.i64(ptr noundef nonnull align 8 dereferenceable(24) %0, i8 0, i64 24, i1 false)
  invoke void @_ZNSt6vectorIdSaIdEE17_M_default_appendEm(ptr noundef nonnull align 8 dereferenceable(24) %0, i64 noundef 2)
          to label %_ZNSt6vectorIdSaIdEE6resizeEm.exit unwind label %12

_ZNSt6vectorIdSaIdEE6resizeEm.exit:               ; preds = %5
  %.pre = load ptr, ptr %0, align 8
  store double %1, ptr %.pre, align 8
  %6 = load ptr, ptr %0, align 8
  %7 = getelementptr inbounds i8, ptr %6, i64 8
  store double %2, ptr %7, align 8
  %8 = load ptr, ptr %0, align 8
  %9 = getelementptr inbounds i8, ptr %8, i64 16
  store double %3, ptr %9, align 8
  %10 = load ptr, ptr %0, align 8
  %11 = getelementptr inbounds i8, ptr %10, i64 24
  store double %4, ptr %11, align 8
  ret void

12:                                               ; preds = %5
  %13 = landingpad { ptr, i32 }
          cleanup
  %14 = load ptr, ptr %0, align 8
  %.not.i.i.i = icmp eq ptr %14, null
  br i1 %.not.i.i.i, label %_ZNSt6vectorIdSaIdEED2Ev.exit, label %15

15:                                               ; preds = %12
  tail call void @_ZdlPv(ptr noundef nonnull %14) #20
  br label %_ZNSt6vectorIdSaIdEED2Ev.exit

_ZNSt6vectorIdSaIdEED2Ev.exit:                    ; preds = %12, %15
  resume { ptr, i32 } %13
}